target datalayout = "e-m:e-p270:32:32-p271:32:32-p272:64:64-i64:64-i128:128-f80:128-n8:16:32:64-S128"
target triple = "x86_64-unknown-linux-gnu"

%"class.icu_75::UObject" = type { ptr }
%"class.icu_75::UnicodeString" = type { %"class.icu_75::Replaceable", %"union.icu_75::UnicodeString::StackBufferOrFields" }
%"class.icu_75::Replaceable" = type { %"class.icu_75::UObject" }
%"union.icu_75::UnicodeString::StackBufferOrFields" = type { %struct.anon.0, [32 x i8] }
%struct.anon.0 = type { i16, i32, i32, ptr }
%struct.anon = type { i16, [27 x i16] }

@_ZTVN6icu_757UObjectE = external unnamed_addr constant { [5 x ptr] }, align 8
@_ZTVN6icu_7513UnicodeStringE = external unnamed_addr constant { [13 x ptr] }, align 8
@_ZTVN6icu_7511ReplaceableE = external unnamed_addr constant { [13 x ptr] }, align 8

; Function Attrs: mustprogress nounwind uwtable
define linkonce_odr void @_ZN6icu_757UObjectC2Ev(ptr noundef nonnull align 8 dereferenceable(8) %this) unnamed_addr #0 comdat align 2 {
entry:
  %this.addr = alloca ptr, align 8
  store ptr %this, ptr %this.addr, align 8
  %this1 = load ptr, ptr %this.addr, align 8
  store ptr getelementptr inbounds ({ [5 x ptr] }, ptr @_ZTVN6icu_757UObjectE, i32 0, i32 0, i32 2), ptr %this1, align 8
  ret void
}

; Function Attrs: mustprogress nounwind uwtable
define linkonce_odr void @_ZN6icu_7511ReplaceableC2Ev(ptr noundef nonnull align 8 dereferenceable(8) %this) unnamed_addr #0 comdat align 2 {
entry:
  %this.addr = alloca ptr, align 8
  store ptr %this, ptr %this.addr, align 8
  %this1 = load ptr, ptr %this.addr, align 8
  call void @_ZN6icu_757UObjectC2Ev(ptr noundef nonnull align 8 dereferenceable(8) %this1) #9
  store ptr getelementptr inbounds ({ [13 x ptr] }, ptr @_ZTVN6icu_7511ReplaceableE, i32 0, i32 0, i32 2), ptr %this1, align 8
  ret void
}

; Function Attrs: mustprogress uwtable
define linkonce_odr void @_ZN6icu_7513UnicodeStringC2Ev(ptr noundef nonnull align 8 dereferenceable(64) %this) unnamed_addr #1 comdat align 2 {
entry:
  %this.addr = alloca ptr, align 8
  store ptr %this, ptr %this.addr, align 8
  %this1 = load ptr, ptr %this.addr, align 8
  call void @_ZN6icu_7511ReplaceableC2Ev(ptr noundef nonnull align 8 dereferenceable(8) %this1)
  store ptr getelementptr inbounds ({ [13 x ptr] }, ptr @_ZTVN6icu_7513UnicodeStringE, i32 0, i32 0, i32 2), ptr %this1, align 8
  %fUnion2 = getelementptr inbounds %"class.icu_75::UnicodeString", ptr %this1, i32 0, i32 1
  %fLengthAndFlags = getelementptr inbounds %struct.anon, ptr %fUnion2, i32 0, i32 0
  store i16 2, ptr %fLengthAndFlags, align 8
  ret void
}

; Function Attrs: mustprogress nounwind uwtable
define linkonce_odr noundef signext i8 @_ZNK6icu_7513UnicodeString7isEmptyEv(ptr noundef nonnull align 8 dereferenceable(64) %this) #0 comdat align 2 {
entry:
  %this.addr = alloca ptr, align 8
  store ptr %this, ptr %this.addr, align 8
  %this1 = load ptr, ptr %this.addr, align 8
  %fUnion = getelementptr inbounds %"class.icu_75::UnicodeString", ptr %this1, i32 0, i32 1
  %fLengthAndFlags = getelementptr inbounds %struct.anon.0, ptr %fUnion, i32 0, i32 0
  %0 = load i16, ptr %fLengthAndFlags, align 8
  %conv = sext i16 %0 to i32
  %shr = ashr i32 %conv, 5
  %cmp = icmp eq i32 %shr, 0
  %conv2 = zext i1 %cmp to i8
  ret i8 %conv2
}

; Function Attrs: mustprogress nounwind uwtable
define internal noundef signext i8 @_ZL9U_FAILURE10UErrorCode(i32 noundef %code) #0 {
entry:
  %code.addr = alloca i32, align 4
  store i32 %code, ptr %code.addr, align 4
  %0 = load i32, ptr %code.addr, align 4
  %cmp = icmp sgt i32 %0, 0
  %conv = zext i1 %cmp to i8
  ret i8 %conv
}

; Function Attrs: mustprogress uwtable
define void @_ZNK6icu_7513TimeZoneNames15getDisplayNamesERKNS_13UnicodeStringEPK17UTimeZoneNameTypeidPS1_R10UErrorCode(ptr noundef nonnull align 8 dereferenceable(8) %this, ptr noundef nonnull align 8 dereferenceable(64) %tzID, ptr noundef %types, i32 noundef %numTypes, double noundef %date, ptr noundef %dest, ptr noundef nonnull align 4 dereferenceable(4) %status) unnamed_addr #1 align 2 personality ptr @__gxx_personality_v0 {
entry:
  %this.addr = alloca ptr, align 8
  %tzID.addr = alloca ptr, align 8
  %types.addr = alloca ptr, align 8
  %numTypes.addr = alloca i32, align 4
  %date.addr = alloca double, align 8
  %dest.addr = alloca ptr, align 8
  %status.addr = alloca ptr, align 8
  %mzID = alloca %"class.icu_75::UnicodeString", align 8
  %i = alloca i32, align 4
  %exn.slot = alloca ptr, align 8
  %ehselector.slot = alloca i32, align 4
  store ptr %this, ptr %this.addr, align 8
  store ptr %tzID, ptr %tzID.addr, align 8
  store ptr %types, ptr %types.addr, align 8
  store i32 %numTypes, ptr %numTypes.addr, align 4
  store double %date, ptr %date.addr, align 8
  store ptr %dest, ptr %dest.addr, align 8
  store ptr %status, ptr %status.addr, align 8
  %this1 = load ptr, ptr %this.addr, align 8
  %0 = load ptr, ptr %status.addr, align 8
  %1 = load i32, ptr %0, align 4
  %call = call noundef signext i8 @_ZL9U_FAILURE10UErrorCode(i32 noundef %1)
  %tobool = icmp ne i8 %call, 0
  br i1 %tobool, label %if.then, label %if.end

if.then:                                          ; preds = %entry
  br label %return

if.end:                                           ; preds = %entry
  %2 = load ptr, ptr %tzID.addr, align 8
  %call2 = call noundef signext i8 @_ZNK6icu_7513UnicodeString7isEmptyEv(ptr noundef nonnull align 8 dereferenceable(64) %2)
  %tobool3 = icmp ne i8 %call2, 0
  br i1 %tobool3, label %if.then4, label %if.end5

if.then4:                                         ; preds = %if.end
  br label %return

if.end5:                                          ; preds = %if.end
  call void @_ZN6icu_7513UnicodeStringC2Ev(ptr noundef nonnull align 8 dereferenceable(64) %mzID)
  store i32 0, ptr %i, align 4
  br label %for.cond

for.cond:                                         ; preds = %for.inc, %if.end5
  %3 = load i32, ptr %i, align 4
  %4 = load i32, ptr %numTypes.addr, align 4
  %cmp = icmp slt i32 %3, %4
  br i1 %cmp, label %for.body, label %for.end

for.body:                                         ; preds = %for.cond
  %5 = load ptr, ptr %tzID.addr, align 8
  %6 = load ptr, ptr %types.addr, align 8
  %7 = load i32, ptr %i, align 4
  %idxprom = sext i32 %7 to i64
  %arrayidx = getelementptr inbounds i32, ptr %6, i64 %idxprom
  %8 = load i32, ptr %arrayidx, align 4
  %9 = load ptr, ptr %dest.addr, align 8
  %10 = load i32, ptr %i, align 4
  %idxprom6 = sext i32 %10 to i64
  %arrayidx7 = getelementptr inbounds %"class.icu_75::UnicodeString", ptr %9, i64 %idxprom6
  %vtable = load ptr, ptr %this1, align 8
  %vfn = getelementptr inbounds ptr, ptr %vtable, i64 10
  %11 = load ptr, ptr %vfn, align 8
  %call8 = invoke noundef nonnull align 8 dereferenceable(64) ptr %11(ptr noundef nonnull align 8 dereferenceable(8) %this1, ptr noundef nonnull align 8 dereferenceable(64) %5, i32 noundef %8, ptr noundef nonnull align 8 dereferenceable(64) %arrayidx7)
          to label %invoke.cont unwind label %lpad

invoke.cont:                                      ; preds = %for.body
  %12 = load ptr, ptr %dest.addr, align 8
  %13 = load i32, ptr %i, align 4
  %idxprom9 = sext i32 %13 to i64
  %arrayidx10 = getelementptr inbounds %"class.icu_75::UnicodeString", ptr %12, i64 %idxprom9
  %call12 = invoke noundef signext i8 @_ZNK6icu_7513UnicodeString7isEmptyEv(ptr noundef nonnull align 8 dereferenceable(64) %arrayidx10)
          to label %invoke.cont11 unwind label %lpad

invoke.cont11:                                    ; preds = %invoke.cont
  %tobool13 = icmp ne i8 %call12, 0
  br i1 %tobool13, label %if.then14, label %if.end32

if.then14:                                        ; preds = %invoke.cont11
  %call16 = invoke noundef signext i8 @_ZNK6icu_7513UnicodeString7isEmptyEv(ptr noundef nonnull align 8 dereferenceable(64) %mzID)
          to label %invoke.cont15 unwind label %lpad

invoke.cont15:                                    ; preds = %if.then14
  %tobool17 = icmp ne i8 %call16, 0
  br i1 %tobool17, label %if.then18, label %if.end23

if.then18:                                        ; preds = %invoke.cont15
  %14 = load ptr, ptr %tzID.addr, align 8
  %15 = load double, ptr %date.addr, align 8
  %vtable19 = load ptr, ptr %this1, align 8
  %vfn20 = getelementptr inbounds ptr, ptr %vtable19, i64 7
  %16 = load ptr, ptr %vfn20, align 8
  %call22 = invoke noundef nonnull align 8 dereferenceable(64) ptr %16(ptr noundef nonnull align 8 dereferenceable(8) %this1, ptr noundef nonnull align 8 dereferenceable(64) %14, double noundef %15, ptr noundef nonnull align 8 dereferenceable(64) %mzID)
          to label %invoke.cont21 unwind label %lpad

invoke.cont21:                                    ; preds = %if.then18
  br label %if.end23

lpad:                                             ; preds = %if.end23, %if.then18, %if.then14, %invoke.cont, %for.body
  %17 = landingpad { ptr, i32 }
          cleanup
  %18 = extractvalue { ptr, i32 } %17, 0
  store ptr %18, ptr %exn.slot, align 8
  %19 = extractvalue { ptr, i32 } %17, 1
  store i32 %19, ptr %ehselector.slot, align 4
  call void @_ZN6icu_7513UnicodeStringD1Ev(ptr noundef nonnull align 8 dereferenceable(64) %mzID) #9
  br label %eh.resume

if.end23:                                         ; preds = %invoke.cont21, %invoke.cont15
  %20 = load ptr, ptr %types.addr, align 8
  %21 = load i32, ptr %i, align 4
  %idxprom24 = sext i32 %21 to i64
  %arrayidx25 = getelementptr inbounds i32, ptr %20, i64 %idxprom24
  %22 = load i32, ptr %arrayidx25, align 4
  %23 = load ptr, ptr %dest.addr, align 8
  %24 = load i32, ptr %i, align 4
  %idxprom26 = sext i32 %24 to i64
  %arrayidx27 = getelementptr inbounds %"class.icu_75::UnicodeString", ptr %23, i64 %idxprom26
  %vtable28 = load ptr, ptr %this1, align 8
  %vfn29 = getelementptr inbounds ptr, ptr %vtable28, i64 9
  %25 = load ptr, ptr %vfn29, align 8
  %call31 = invoke noundef nonnull align 8 dereferenceable(64) ptr %25(ptr noundef nonnull align 8 dereferenceable(8) %this1, ptr noundef nonnull align 8 dereferenceable(64) %mzID, i32 noundef %22, ptr noundef nonnull align 8 dereferenceable(64) %arrayidx27)
          to label %invoke.cont30 unwind label %lpad

invoke.cont30:                                    ; preds = %if.end23
  br label %if.end32

if.end32:                                         ; preds = %invoke.cont30, %invoke.cont11
  br label %for.inc

for.inc:                                          ; preds = %if.end32
  %26 = load i32, ptr %i, align 4
  %inc = add nsw i32 %26, 1
  store i32 %inc, ptr %i, align 4
  br label %for.cond, !llvm.loop !6

for.end:                                          ; preds = %for.cond
  call void @_ZN6icu_7513UnicodeStringD1Ev(ptr noundef nonnull align 8 dereferenceable(64) %mzID) #9
  br label %return

return:                                           ; preds = %for.end, %if.then4, %if.then
  ret void

eh.resume:                                        ; preds = %lpad
  %exn = load ptr, ptr %exn.slot, align 8
  %sel = load i32, ptr %ehselector.slot, align 4
  %lpad.val = insertvalue { ptr, i32 } poison, ptr %exn, 0
  %lpad.val33 = insertvalue { ptr, i32 } %lpad.val, i32 %sel, 1
  resume { ptr, i32 } %lpad.val33
}