; Function Attrs: mustprogress uwtable
define void @_ZNK6icu_7513TimeZoneNames15getDisplayNamesERKNS_13UnicodeStringEPK17UTimeZoneNameTypeidPS1_R10UErrorCode(ptr noundef nonnull align 8 dereferenceable(8) %this, ptr noundef nonnull align 8 dereferenceable(64) %tzID, ptr nocapture noundef readonly %types, i32 noundef %numTypes, double noundef %date, ptr noundef %dest, ptr nocapture noundef nonnull readonly align 4 dereferenceable(4) %status) unnamed_addr #1 align 2 personality ptr @__gxx_personality_v0 {
entry:
  %mzID = alloca %"class.icu_75::UnicodeString", align 8
  %0 = load i32, ptr %status, align 4
  %cmp.i = icmp slt i32 %0, 1
  %fUnion.i = getelementptr inbounds i8, ptr %tzID, i64 8
  %1 = load i16, ptr %fUnion.i, align 8
  %cmp.i12 = icmp ugt i16 %1, 31
  %or.cond = select i1 %cmp.i, i1 %cmp.i12, i1 false
  br i1 %or.cond, label %if.end5, label %return

if.end5:                                          ; preds = %entry
  store ptr getelementptr inbounds ({ [13 x ptr] }, ptr @_ZTVN6icu_7513UnicodeStringE, i64 0, i32 0, i64 2), ptr %mzID, align 8
  %fUnion2.i = getelementptr inbounds i8, ptr %mzID, i64 8
  store i16 2, ptr %fUnion2.i, align 8
  %cmp19 = icmp sgt i32 %numTypes, 0
  br i1 %cmp19, label %for.body.preheader, label %for.end

for.body.preheader:                               ; preds = %if.end5
  %wide.trip.count = zext nneg i32 %numTypes to i64
  br label %for.body

for.body:                                         ; preds = %for.body.preheader, %for.inc
  %indvars.iv = phi i64 [ 0, %for.body.preheader ], [ %indvars.iv.next, %for.inc ]
  %arrayidx = getelementptr inbounds i32, ptr %types, i64 %indvars.iv
  %2 = load i32, ptr %arrayidx, align 4
  %arrayidx7 = getelementptr inbounds %"class.icu_75::UnicodeString", ptr %dest, i64 %indvars.iv
  %vtable = load ptr, ptr %this, align 8
  %vfn = getelementptr inbounds i8, ptr %vtable, i64 80
  %3 = load ptr, ptr %vfn, align 8
  %call8 = invoke noundef nonnull align 8 dereferenceable(64) ptr %3(ptr noundef nonnull align 8 dereferenceable(8) %this, ptr noundef nonnull align 8 dereferenceable(64) %tzID, i32 noundef %2, ptr noundef nonnull align 8 dereferenceable(64) %arrayidx7)
          to label %invoke.cont unwind label %lpad

invoke.cont:                                      ; preds = %for.body
  %fUnion.i13 = getelementptr inbounds i8, ptr %arrayidx7, i64 8
  %4 = load i16, ptr %fUnion.i13, align 8
  %cmp.i14 = icmp ugt i16 %4, 31
  br i1 %cmp.i14, label %for.inc, label %if.then14

if.then14:                                        ; preds = %invoke.cont
  %5 = load i16, ptr %fUnion2.i, align 8
  %cmp.i17 = icmp ugt i16 %5, 31
  br i1 %cmp.i17, label %if.end23, label %if.then18

if.then18:                                        ; preds = %if.then14
  %vtable19 = load ptr, ptr %this, align 8
  %vfn20 = getelementptr inbounds i8, ptr %vtable19, i64 56
  %6 = load ptr, ptr %vfn20, align 8
  %call22 = invoke noundef nonnull align 8 dereferenceable(64) ptr %6(ptr noundef nonnull align 8 dereferenceable(8) %this, ptr noundef nonnull align 8 dereferenceable(64) %tzID, double noundef %date, ptr noundef nonnull align 8 dereferenceable(64) %mzID)
          to label %if.end23 unwind label %lpad

lpad:                                             ; preds = %if.end23, %if.then18, %for.body
  %7 = landingpad { ptr, i32 }
          cleanup
  call void @_ZN6icu_7513UnicodeStringD1Ev(ptr noundef nonnull align 8 dereferenceable(64) %mzID) #17
  resume { ptr, i32 } %7

if.end23:                                         ; preds = %if.then18, %if.then14
  %8 = load i32, ptr %arrayidx, align 4
  %vtable28 = load ptr, ptr %this, align 8
  %vfn29 = getelementptr inbounds i8, ptr %vtable28, i64 72
  %9 = load ptr, ptr %vfn29, align 8
  %call31 = invoke noundef nonnull align 8 dereferenceable(64) ptr %9(ptr noundef nonnull align 8 dereferenceable(8) %this, ptr noundef nonnull align 8 dereferenceable(64) %mzID, i32 noundef %8, ptr noundef nonnull align 8 dereferenceable(64) %arrayidx7)
          to label %for.inc unwind label %lpad

for.inc:                                          ; preds = %invoke.cont, %if.end23
  %indvars.iv.next = add nuw nsw i64 %indvars.iv, 1
  %exitcond.not = icmp eq i64 %indvars.iv.next, %wide.trip.count
  br i1 %exitcond.not, label %for.end, label %for.body, !llvm.loop !6

for.end:                                          ; preds = %for.inc, %if.end5
  call void @_ZN6icu_7513UnicodeStringD1Ev(ptr noundef nonnull align 8 dereferenceable(64) %mzID) #17
  br label %return

return:                                           ; preds = %entry, %for.end
  ret void
}